target datalayout = "e-m:e-p270:32:32-p271:32:32-p272:64:64-i64:64-i128:128-f80:128-n8:16:32:64-S128"
target triple = "x86_64-pc-linux-gnu"

%struct.AclItem = type { i32, i32, i64 }
%struct.FunctionCallInfoBaseData = type { ptr, ptr, ptr, i32, i8, i16, [0 x %struct.NullableDatum] }
%struct.NullableDatum = type { i64, i8 }

; Function Attrs: inlinehint nounwind uwtable
define internal i64 @hash_uint32_extended(i32 noundef %0, i64 noundef %1) #5 {
  %3 = alloca i32, align 4
  %4 = alloca i64, align 8
  store i32 %0, ptr %3, align 4
  store i64 %1, ptr %4, align 8
  %5 = load i32, ptr %3, align 4
  %6 = load i64, ptr %4, align 8
  %7 = call i64 @hash_bytes_uint32_extended(i32 noundef %5, i64 noundef %6)
  %8 = call i64 @UInt64GetDatum(i64 noundef %7)
  ret i64 %8
}

; Function Attrs: inlinehint nounwind uwtable
define internal i64 @UInt64GetDatum(i64 noundef %0) #5 {
  %2 = alloca i64, align 8
  store i64 %0, ptr %2, align 8
  %3 = load i64, ptr %2, align 8
  ret i64 %3
}

; Function Attrs: inlinehint nounwind uwtable
define internal i64 @DatumGetInt64(i64 noundef %0) #5 {
  %2 = alloca i64, align 8
  store i64 %0, ptr %2, align 8
  %3 = load i64, ptr %2, align 8
  ret i64 %3
}

; Function Attrs: inlinehint nounwind uwtable
define internal ptr @DatumGetPointer(i64 noundef %0) #5 {
  %2 = alloca i64, align 8
  store i64 %0, ptr %2, align 8
  %3 = load i64, ptr %2, align 8
  %4 = inttoptr i64 %3 to ptr
  ret ptr %4
}

; Function Attrs: nounwind uwtable
define dso_local i64 @hash_aclitem_extended(ptr noundef %0) #0 {
  %2 = alloca ptr, align 8
  %3 = alloca ptr, align 8
  %4 = alloca i64, align 8
  %5 = alloca i32, align 4
  store ptr %0, ptr %2, align 8
  call void @llvm.lifetime.start.p0(i64 8, ptr %3) #9
  %6 = load ptr, ptr %2, align 8
  %7 = getelementptr inbounds nuw %struct.FunctionCallInfoBaseData, ptr %6, i32 0, i32 6
  %8 = getelementptr inbounds [0 x %struct.NullableDatum], ptr %7, i64 0, i64 0
  %9 = getelementptr inbounds nuw %struct.NullableDatum, ptr %8, i32 0, i32 0
  %10 = load i64, ptr %9, align 8
  %11 = call ptr @DatumGetPointer(i64 noundef %10)
  store ptr %11, ptr %3, align 8
  call void @llvm.lifetime.start.p0(i64 8, ptr %4) #9
  %12 = load ptr, ptr %2, align 8
  %13 = getelementptr inbounds nuw %struct.FunctionCallInfoBaseData, ptr %12, i32 0, i32 6
  %14 = getelementptr inbounds [0 x %struct.NullableDatum], ptr %13, i64 0, i64 1
  %15 = getelementptr inbounds nuw %struct.NullableDatum, ptr %14, i32 0, i32 0
  %16 = load i64, ptr %15, align 8
  %17 = call i64 @DatumGetInt64(i64 noundef %16)
  store i64 %17, ptr %4, align 8
  call void @llvm.lifetime.start.p0(i64 4, ptr %5) #9
  %18 = load ptr, ptr %3, align 8
  %19 = getelementptr inbounds nuw %struct.AclItem, ptr %18, i32 0, i32 2
  %20 = load i64, ptr %19, align 8
  %21 = load ptr, ptr %3, align 8
  %22 = getelementptr inbounds nuw %struct.AclItem, ptr %21, i32 0, i32 0
  %23 = load i32, ptr %22, align 8
  %24 = zext i32 %23 to i64
  %25 = add i64 %20, %24
  %26 = load ptr, ptr %3, align 8
  %27 = getelementptr inbounds nuw %struct.AclItem, ptr %26, i32 0, i32 1
  %28 = load i32, ptr %27, align 4
  %29 = zext i32 %28 to i64
  %30 = add i64 %25, %29
  %31 = trunc i64 %30 to i32
  store i32 %31, ptr %5, align 4
  %32 = load i64, ptr %4, align 8
  %33 = icmp eq i64 %32, 0
  br i1 %33, label %34, label %38

34:                                               ; preds = %1
  %35 = load i32, ptr %5, align 4
  %36 = zext i32 %35 to i64
  %37 = call i64 @UInt64GetDatum(i64 noundef %36)
  br label %42

38:                                               ; preds = %1
  %39 = load i32, ptr %5, align 4
  %40 = load i64, ptr %4, align 8
  %41 = call i64 @hash_uint32_extended(i32 noundef %39, i64 noundef %40)
  br label %42

42:                                               ; preds = %38, %34
  %43 = phi i64 [ %37, %34 ], [ %41, %38 ]
  call void @llvm.lifetime.end.p0(i64 4, ptr %5) #9
  call void @llvm.lifetime.end.p0(i64 8, ptr %4) #9
  call void @llvm.lifetime.end.p0(i64 8, ptr %3) #9
  ret i64 %43
}