; Function Attrs: nounwind uwtable
define dso_local i64 @hash_aclitem_extended(ptr noundef readonly captures(none) %0) local_unnamed_addr #0 {
  %2 = getelementptr inbounds nuw i8, ptr %0, i64 32
  %3 = load i64, ptr %2, align 8
  %4 = inttoptr i64 %3 to ptr
  %5 = getelementptr inbounds nuw i8, ptr %0, i64 48
  %6 = load i64, ptr %5, align 8
  %7 = getelementptr inbounds nuw i8, ptr %4, i64 8
  %8 = load i64, ptr %7, align 8
  %9 = load i32, ptr %4, align 8
  %10 = getelementptr inbounds nuw i8, ptr %4, i64 4
  %11 = load i32, ptr %10, align 4
  %12 = trunc i64 %8 to i32
  %13 = add i32 %9, %12
  %14 = add i32 %13, %11
  %15 = icmp eq i64 %6, 0
  br i1 %15, label %16, label %18

16:                                               ; preds = %1
  %17 = zext i32 %14 to i64
  br label %20

18:                                               ; preds = %1
  %19 = tail call i64 @hash_bytes_uint32_extended(i32 noundef %14, i64 noundef range(i64 1, 0) %6) #14
  br label %20

20:                                               ; preds = %18, %16
  %21 = phi i64 [ %17, %16 ], [ %19, %18 ]
  ret i64 %21
}